; Function Attrs: nounwind uwtable
define ptr @l_Lean_Meta_mkAppOptM___lambda__1___boxed(ptr noundef %0, ptr noundef %1, ptr noundef %2, ptr noundef %3, ptr noundef %4, ptr noundef %5, ptr noundef %6) #0 {
  %8 = tail call ptr @l_Lean_Meta_mkAppOptM___lambda__1(ptr noundef %0, ptr noundef %1, ptr noundef %2, ptr noundef %3, ptr noundef %4, ptr noundef %5, ptr noundef %6)
  %9 = ptrtoint ptr %1 to i64
  %10 = and i64 %9, 1
  %.not = icmp eq i64 %10, 0
  br i1 %.not, label %11, label %lean_dec.exit

11:                                               ; preds = %7
  %12 = load i32, ptr %1, align 4, !tbaa !4
  %13 = icmp sgt i32 %12, 1
  br i1 %13, label %14, label %16, !prof !9

14:                                               ; preds = %11
  %15 = add nsw i32 %12, -1
  store i32 %15, ptr %1, align 4, !tbaa !4
  br label %lean_dec.exit

16:                                               ; preds = %11
  %.not.i = icmp eq i32 %12, 0
  br i1 %.not.i, label %lean_dec.exit, label %17

17:                                               ; preds = %16
  tail call void @lean_dec_ref_cold(ptr noundef nonnull %1) #5
  br label %lean_dec.exit

lean_dec.exit:                                    ; preds = %17, %16, %14, %7
  ret ptr %8
}